target datalayout = "e-m:e-p270:32:32-p271:32:32-p272:64:64-i64:64-i128:128-f80:128-n8:16:32:64-S128"
target triple = "x86_64-pc-linux-gnu"

%struct.parResultsMaster = type { i32, i32, [10 x %struct.contractType] }
%struct.contractType = type { i32, i32, i32, i32, i32 }
%struct.parResultsDealer = type { i32, i32, [10 x [10 x i8]] }

@.str = private unnamed_addr constant [3 x i8] c"%d\00", align 1
@.str.3 = private unnamed_addr constant [3 x i8] c"-N\00", align 1
@.str.4 = private unnamed_addr constant [3 x i8] c"-E\00", align 1
@.str.5 = private unnamed_addr constant [3 x i8] c"-S\00", align 1
@.str.6 = private unnamed_addr constant [3 x i8] c"-W\00", align 1
@.str.7 = private unnamed_addr constant [2 x i8] c"N\00", align 1
@.str.8 = private unnamed_addr constant [2 x i8] c"S\00", align 1
@.str.9 = private unnamed_addr constant [2 x i8] c"H\00", align 1
@.str.10 = private unnamed_addr constant [2 x i8] c"D\00", align 1
@.str.11 = private unnamed_addr constant [2 x i8] c"C\00", align 1
@.str.12 = private unnamed_addr constant [2 x i8] c"*\00", align 1
@.str.13 = private unnamed_addr constant [4 x i8] c"-NS\00", align 1
@.str.14 = private unnamed_addr constant [4 x i8] c"-EW\00", align 1
@.str.15 = private unnamed_addr constant [4 x i8] c"-%d\00", align 1
@.str.16 = private unnamed_addr constant [4 x i8] c"+%d\00", align 1

; Function Attrs: mustprogress uwtable
define i32 @SidesPar(ptr noundef %0, ptr noundef %1, i32 noundef %2) #0 {
  %4 = alloca i32, align 4
  %5 = alloca ptr, align 8
  %6 = alloca ptr, align 8
  %7 = alloca i32, align 4
  %8 = alloca [2 x %struct.parResultsMaster], align 16
  %9 = alloca i32, align 4
  %10 = alloca i32, align 4
  %11 = alloca i32, align 4
  %12 = alloca [4 x i8], align 1
  store ptr %0, ptr %5, align 8
  store ptr %1, ptr %6, align 8
  store i32 %2, ptr %7, align 4
  %13 = load ptr, ptr %5, align 8
  %14 = getelementptr inbounds [2 x %struct.parResultsMaster], ptr %8, i64 0, i64 0
  %15 = load i32, ptr %7, align 4
  %16 = call i32 @SidesParBin(ptr noundef %13, ptr noundef %14, i32 noundef %15)
  store i32 %16, ptr %9, align 4
  %17 = load i32, ptr %9, align 4
  %18 = icmp ne i32 %17, 1
  br i1 %18, label %19, label %21

19:                                               ; preds = %3
  %20 = load i32, ptr %9, align 4
  store i32 %20, ptr %4, align 4
  br label %317

21:                                               ; preds = %3
  store i32 0, ptr %10, align 4
  br label %22

22:                                               ; preds = %313, %21
  %23 = load i32, ptr %10, align 4
  %24 = icmp sle i32 %23, 1
  br i1 %24, label %25, label %316

25:                                               ; preds = %22
  %26 = load i32, ptr %10, align 4
  %27 = sext i32 %26 to i64
  %28 = getelementptr inbounds [2 x %struct.parResultsMaster], ptr %8, i64 0, i64 %27
  %29 = getelementptr inbounds nuw %struct.parResultsMaster, ptr %28, i32 0, i32 0
  %30 = load i32, ptr %29, align 16
  %31 = load ptr, ptr %6, align 8
  %32 = load i32, ptr %10, align 4
  %33 = sext i32 %32 to i64
  %34 = getelementptr inbounds %struct.parResultsDealer, ptr %31, i64 %33
  %35 = getelementptr inbounds nuw %struct.parResultsDealer, ptr %34, i32 0, i32 1
  store i32 %30, ptr %35, align 4
  %36 = load i32, ptr %10, align 4
  %37 = sext i32 %36 to i64
  %38 = getelementptr inbounds [2 x %struct.parResultsMaster], ptr %8, i64 0, i64 %37
  %39 = getelementptr inbounds nuw %struct.parResultsMaster, ptr %38, i32 0, i32 1
  %40 = load i32, ptr %39, align 4
  %41 = load ptr, ptr %6, align 8
  %42 = load i32, ptr %10, align 4
  %43 = sext i32 %42 to i64
  %44 = getelementptr inbounds %struct.parResultsDealer, ptr %41, i64 %43
  %45 = getelementptr inbounds nuw %struct.parResultsDealer, ptr %44, i32 0, i32 0
  store i32 %40, ptr %45, align 4
  store i32 0, ptr %11, align 4
  br label %46

46:                                               ; preds = %309, %25
  %47 = load i32, ptr %11, align 4
  %48 = load ptr, ptr %6, align 8
  %49 = load i32, ptr %10, align 4
  %50 = sext i32 %49 to i64
  %51 = getelementptr inbounds %struct.parResultsDealer, ptr %48, i64 %50
  %52 = getelementptr inbounds nuw %struct.parResultsDealer, ptr %51, i32 0, i32 0
  %53 = load i32, ptr %52, align 4
  %54 = icmp slt i32 %47, %53
  br i1 %54, label %55, label %312

55:                                               ; preds = %46
  %56 = load ptr, ptr %6, align 8
  %57 = load i32, ptr %10, align 4
  %58 = sext i32 %57 to i64
  %59 = getelementptr inbounds %struct.parResultsDealer, ptr %56, i64 %58
  %60 = getelementptr inbounds nuw %struct.parResultsDealer, ptr %59, i32 0, i32 2
  %61 = load i32, ptr %11, align 4
  %62 = sext i32 %61 to i64
  %63 = getelementptr inbounds [10 x [10 x i8]], ptr %60, i64 0, i64 %62
  %64 = getelementptr inbounds [10 x i8], ptr %63, i64 0, i64 0
  %65 = load i32, ptr %10, align 4
  %66 = sext i32 %65 to i64
  %67 = getelementptr inbounds [2 x %struct.parResultsMaster], ptr %8, i64 0, i64 %66
  %68 = getelementptr inbounds nuw %struct.parResultsMaster, ptr %67, i32 0, i32 2
  %69 = load i32, ptr %11, align 4
  %70 = sext i32 %69 to i64
  %71 = getelementptr inbounds [10 x %struct.contractType], ptr %68, i64 0, i64 %70
  %72 = getelementptr inbounds nuw %struct.contractType, ptr %71, i32 0, i32 2
  %73 = load i32, ptr %72, align 4
  %74 = call i32 (ptr, ptr, ...) @sprintf(ptr noundef %64, ptr noundef @.str, i32 noundef %73) #7
  %75 = load i32, ptr %10, align 4
  %76 = sext i32 %75 to i64
  %77 = getelementptr inbounds [2 x %struct.parResultsMaster], ptr %8, i64 0, i64 %76
  %78 = getelementptr inbounds nuw %struct.parResultsMaster, ptr %77, i32 0, i32 2
  %79 = load i32, ptr %11, align 4
  %80 = sext i32 %79 to i64
  %81 = getelementptr inbounds [10 x %struct.contractType], ptr %78, i64 0, i64 %80
  %82 = getelementptr inbounds nuw %struct.contractType, ptr %81, i32 0, i32 3
  %83 = load i32, ptr %82, align 4
  switch i32 %83, label %139 [
    i32 0, label %84
    i32 1, label %95
    i32 2, label %106
    i32 3, label %117
    i32 4, label %128
  ]

84:                                               ; preds = %55
  %85 = load ptr, ptr %6, align 8
  %86 = load i32, ptr %10, align 4
  %87 = sext i32 %86 to i64
  %88 = getelementptr inbounds %struct.parResultsDealer, ptr %85, i64 %87
  %89 = getelementptr inbounds nuw %struct.parResultsDealer, ptr %88, i32 0, i32 2
  %90 = load i32, ptr %11, align 4
  %91 = sext i32 %90 to i64
  %92 = getelementptr inbounds [10 x [10 x i8]], ptr %89, i64 0, i64 %91
  %93 = getelementptr inbounds [10 x i8], ptr %92, i64 0, i64 0
  %94 = call ptr @strcat(ptr noundef %93, ptr noundef @.str.7) #7
  br label %140

95:                                               ; preds = %55
  %96 = load ptr, ptr %6, align 8
  %97 = load i32, ptr %10, align 4
  %98 = sext i32 %97 to i64
  %99 = getelementptr inbounds %struct.parResultsDealer, ptr %96, i64 %98
  %100 = getelementptr inbounds nuw %struct.parResultsDealer, ptr %99, i32 0, i32 2
  %101 = load i32, ptr %11, align 4
  %102 = sext i32 %101 to i64
  %103 = getelementptr inbounds [10 x [10 x i8]], ptr %100, i64 0, i64 %102
  %104 = getelementptr inbounds [10 x i8], ptr %103, i64 0, i64 0
  %105 = call ptr @strcat(ptr noundef %104, ptr noundef @.str.8) #7
  br label %140

106:                                              ; preds = %55
  %107 = load ptr, ptr %6, align 8
  %108 = load i32, ptr %10, align 4
  %109 = sext i32 %108 to i64
  %110 = getelementptr inbounds %struct.parResultsDealer, ptr %107, i64 %109
  %111 = getelementptr inbounds nuw %struct.parResultsDealer, ptr %110, i32 0, i32 2
  %112 = load i32, ptr %11, align 4
  %113 = sext i32 %112 to i64
  %114 = getelementptr inbounds [10 x [10 x i8]], ptr %111, i64 0, i64 %113
  %115 = getelementptr inbounds [10 x i8], ptr %114, i64 0, i64 0
  %116 = call ptr @strcat(ptr noundef %115, ptr noundef @.str.9) #7
  br label %140

117:                                              ; preds = %55
  %118 = load ptr, ptr %6, align 8
  %119 = load i32, ptr %10, align 4
  %120 = sext i32 %119 to i64
  %121 = getelementptr inbounds %struct.parResultsDealer, ptr %118, i64 %120
  %122 = getelementptr inbounds nuw %struct.parResultsDealer, ptr %121, i32 0, i32 2
  %123 = load i32, ptr %11, align 4
  %124 = sext i32 %123 to i64
  %125 = getelementptr inbounds [10 x [10 x i8]], ptr %122, i64 0, i64 %124
  %126 = getelementptr inbounds [10 x i8], ptr %125, i64 0, i64 0
  %127 = call ptr @strcat(ptr noundef %126, ptr noundef @.str.10) #7
  br label %140

128:                                              ; preds = %55
  %129 = load ptr, ptr %6, align 8
  %130 = load i32, ptr %10, align 4
  %131 = sext i32 %130 to i64
  %132 = getelementptr inbounds %struct.parResultsDealer, ptr %129, i64 %131
  %133 = getelementptr inbounds nuw %struct.parResultsDealer, ptr %132, i32 0, i32 2
  %134 = load i32, ptr %11, align 4
  %135 = sext i32 %134 to i64
  %136 = getelementptr inbounds [10 x [10 x i8]], ptr %133, i64 0, i64 %135
  %137 = getelementptr inbounds [10 x i8], ptr %136, i64 0, i64 0
  %138 = call ptr @strcat(ptr noundef %137, ptr noundef @.str.11) #7
  br label %140

139:                                              ; preds = %55
  br label %140

140:                                              ; preds = %139, %128, %117, %106, %95, %84
  %141 = load i32, ptr %10, align 4
  %142 = sext i32 %141 to i64
  %143 = getelementptr inbounds [2 x %struct.parResultsMaster], ptr %8, i64 0, i64 %142
  %144 = getelementptr inbounds nuw %struct.parResultsMaster, ptr %143, i32 0, i32 2
  %145 = load i32, ptr %11, align 4
  %146 = sext i32 %145 to i64
  %147 = getelementptr inbounds [10 x %struct.contractType], ptr %144, i64 0, i64 %146
  %148 = getelementptr inbounds nuw %struct.contractType, ptr %147, i32 0, i32 0
  %149 = load i32, ptr %148, align 4
  %150 = icmp sgt i32 %149, 0
  br i1 %150, label %151, label %162

151:                                              ; preds = %140
  %152 = load ptr, ptr %6, align 8
  %153 = load i32, ptr %10, align 4
  %154 = sext i32 %153 to i64
  %155 = getelementptr inbounds %struct.parResultsDealer, ptr %152, i64 %154
  %156 = getelementptr inbounds nuw %struct.parResultsDealer, ptr %155, i32 0, i32 2
  %157 = load i32, ptr %11, align 4
  %158 = sext i32 %157 to i64
  %159 = getelementptr inbounds [10 x [10 x i8]], ptr %156, i64 0, i64 %158
  %160 = getelementptr inbounds [10 x i8], ptr %159, i64 0, i64 0
  %161 = call ptr @strcat(ptr noundef %160, ptr noundef @.str.12) #7
  br label %162

162:                                              ; preds = %151, %140
  %163 = load i32, ptr %10, align 4
  %164 = sext i32 %163 to i64
  %165 = getelementptr inbounds [2 x %struct.parResultsMaster], ptr %8, i64 0, i64 %164
  %166 = getelementptr inbounds nuw %struct.parResultsMaster, ptr %165, i32 0, i32 2
  %167 = load i32, ptr %11, align 4
  %168 = sext i32 %167 to i64
  %169 = getelementptr inbounds [10 x %struct.contractType], ptr %166, i64 0, i64 %168
  %170 = getelementptr inbounds nuw %struct.contractType, ptr %169, i32 0, i32 4
  %171 = load i32, ptr %170, align 4
  switch i32 %171, label %238 [
    i32 0, label %172
    i32 1, label %183
    i32 2, label %194
    i32 3, label %205
    i32 4, label %216
    i32 5, label %227
  ]

172:                                              ; preds = %162
  %173 = load ptr, ptr %6, align 8
  %174 = load i32, ptr %10, align 4
  %175 = sext i32 %174 to i64
  %176 = getelementptr inbounds %struct.parResultsDealer, ptr %173, i64 %175
  %177 = getelementptr inbounds nuw %struct.parResultsDealer, ptr %176, i32 0, i32 2
  %178 = load i32, ptr %11, align 4
  %179 = sext i32 %178 to i64
  %180 = getelementptr inbounds [10 x [10 x i8]], ptr %177, i64 0, i64 %179
  %181 = getelementptr inbounds [10 x i8], ptr %180, i64 0, i64 0
  %182 = call ptr @strcat(ptr noundef %181, ptr noundef @.str.3) #7
  br label %239

183:                                              ; preds = %162
  %184 = load ptr, ptr %6, align 8
  %185 = load i32, ptr %10, align 4
  %186 = sext i32 %185 to i64
  %187 = getelementptr inbounds %struct.parResultsDealer, ptr %184, i64 %186
  %188 = getelementptr inbounds nuw %struct.parResultsDealer, ptr %187, i32 0, i32 2
  %189 = load i32, ptr %11, align 4
  %190 = sext i32 %189 to i64
  %191 = getelementptr inbounds [10 x [10 x i8]], ptr %188, i64 0, i64 %190
  %192 = getelementptr inbounds [10 x i8], ptr %191, i64 0, i64 0
  %193 = call ptr @strcat(ptr noundef %192, ptr noundef @.str.4) #7
  br label %239

194:                                              ; preds = %162
  %195 = load ptr, ptr %6, align 8
  %196 = load i32, ptr %10, align 4
  %197 = sext i32 %196 to i64
  %198 = getelementptr inbounds %struct.parResultsDealer, ptr %195, i64 %197
  %199 = getelementptr inbounds nuw %struct.parResultsDealer, ptr %198, i32 0, i32 2
  %200 = load i32, ptr %11, align 4
  %201 = sext i32 %200 to i64
  %202 = getelementptr inbounds [10 x [10 x i8]], ptr %199, i64 0, i64 %201
  %203 = getelementptr inbounds [10 x i8], ptr %202, i64 0, i64 0
  %204 = call ptr @strcat(ptr noundef %203, ptr noundef @.str.5) #7
  br label %239

205:                                              ; preds = %162
  %206 = load ptr, ptr %6, align 8
  %207 = load i32, ptr %10, align 4
  %208 = sext i32 %207 to i64
  %209 = getelementptr inbounds %struct.parResultsDealer, ptr %206, i64 %208
  %210 = getelementptr inbounds nuw %struct.parResultsDealer, ptr %209, i32 0, i32 2
  %211 = load i32, ptr %11, align 4
  %212 = sext i32 %211 to i64
  %213 = getelementptr inbounds [10 x [10 x i8]], ptr %210, i64 0, i64 %212
  %214 = getelementptr inbounds [10 x i8], ptr %213, i64 0, i64 0
  %215 = call ptr @strcat(ptr noundef %214, ptr noundef @.str.6) #7
  br label %239

216:                                              ; preds = %162
  %217 = load ptr, ptr %6, align 8
  %218 = load i32, ptr %10, align 4
  %219 = sext i32 %218 to i64
  %220 = getelementptr inbounds %struct.parResultsDealer, ptr %217, i64 %219
  %221 = getelementptr inbounds nuw %struct.parResultsDealer, ptr %220, i32 0, i32 2
  %222 = load i32, ptr %11, align 4
  %223 = sext i32 %222 to i64
  %224 = getelementptr inbounds [10 x [10 x i8]], ptr %221, i64 0, i64 %223
  %225 = getelementptr inbounds [10 x i8], ptr %224, i64 0, i64 0
  %226 = call ptr @strcat(ptr noundef %225, ptr noundef @.str.13) #7
  br label %239

227:                                              ; preds = %162
  %228 = load ptr, ptr %6, align 8
  %229 = load i32, ptr %10, align 4
  %230 = sext i32 %229 to i64
  %231 = getelementptr inbounds %struct.parResultsDealer, ptr %228, i64 %230
  %232 = getelementptr inbounds nuw %struct.parResultsDealer, ptr %231, i32 0, i32 2
  %233 = load i32, ptr %11, align 4
  %234 = sext i32 %233 to i64
  %235 = getelementptr inbounds [10 x [10 x i8]], ptr %232, i64 0, i64 %234
  %236 = getelementptr inbounds [10 x i8], ptr %235, i64 0, i64 0
  %237 = call ptr @strcat(ptr noundef %236, ptr noundef @.str.14) #7
  br label %239

238:                                              ; preds = %162
  br label %239

239:                                              ; preds = %238, %227, %216, %205, %194, %183, %172
  %240 = load i32, ptr %10, align 4
  %241 = sext i32 %240 to i64
  %242 = getelementptr inbounds [2 x %struct.parResultsMaster], ptr %8, i64 0, i64 %241
  %243 = getelementptr inbounds nuw %struct.parResultsMaster, ptr %242, i32 0, i32 2
  %244 = load i32, ptr %11, align 4
  %245 = sext i32 %244 to i64
  %246 = getelementptr inbounds [10 x %struct.contractType], ptr %243, i64 0, i64 %245
  %247 = getelementptr inbounds nuw %struct.contractType, ptr %246, i32 0, i32 0
  %248 = load i32, ptr %247, align 4
  %249 = icmp sgt i32 %248, 0
  br i1 %249, label %250, label %273

250:                                              ; preds = %239
  %251 = getelementptr inbounds [4 x i8], ptr %12, i64 0, i64 0
  %252 = load i32, ptr %10, align 4
  %253 = sext i32 %252 to i64
  %254 = getelementptr inbounds [2 x %struct.parResultsMaster], ptr %8, i64 0, i64 %253
  %255 = getelementptr inbounds nuw %struct.parResultsMaster, ptr %254, i32 0, i32 2
  %256 = load i32, ptr %11, align 4
  %257 = sext i32 %256 to i64
  %258 = getelementptr inbounds [10 x %struct.contractType], ptr %255, i64 0, i64 %257
  %259 = getelementptr inbounds nuw %struct.contractType, ptr %258, i32 0, i32 0
  %260 = load i32, ptr %259, align 4
  %261 = call i32 (ptr, ptr, ...) @sprintf(ptr noundef %251, ptr noundef @.str.15, i32 noundef %260) #7
  %262 = load ptr, ptr %6, align 8
  %263 = load i32, ptr %10, align 4
  %264 = sext i32 %263 to i64
  %265 = getelementptr inbounds %struct.parResultsDealer, ptr %262, i64 %264
  %266 = getelementptr inbounds nuw %struct.parResultsDealer, ptr %265, i32 0, i32 2
  %267 = load i32, ptr %11, align 4
  %268 = sext i32 %267 to i64
  %269 = getelementptr inbounds [10 x [10 x i8]], ptr %266, i64 0, i64 %268
  %270 = getelementptr inbounds [10 x i8], ptr %269, i64 0, i64 0
  %271 = getelementptr inbounds [4 x i8], ptr %12, i64 0, i64 0
  %272 = call ptr @strcat(ptr noundef %270, ptr noundef %271) #7
  br label %308

273:                                              ; preds = %239
  %274 = load i32, ptr %10, align 4
  %275 = sext i32 %274 to i64
  %276 = getelementptr inbounds [2 x %struct.parResultsMaster], ptr %8, i64 0, i64 %275
  %277 = getelementptr inbounds nuw %struct.parResultsMaster, ptr %276, i32 0, i32 2
  %278 = load i32, ptr %11, align 4
  %279 = sext i32 %278 to i64
  %280 = getelementptr inbounds [10 x %struct.contractType], ptr %277, i64 0, i64 %279
  %281 = getelementptr inbounds nuw %struct.contractType, ptr %280, i32 0, i32 1
  %282 = load i32, ptr %281, align 4
  %283 = icmp sgt i32 %282, 0
  br i1 %283, label %284, label %307

284:                                              ; preds = %273
  %285 = getelementptr inbounds [4 x i8], ptr %12, i64 0, i64 0
  %286 = load i32, ptr %10, align 4
  %287 = sext i32 %286 to i64
  %288 = getelementptr inbounds [2 x %struct.parResultsMaster], ptr %8, i64 0, i64 %287
  %289 = getelementptr inbounds nuw %struct.parResultsMaster, ptr %288, i32 0, i32 2
  %290 = load i32, ptr %11, align 4
  %291 = sext i32 %290 to i64
  %292 = getelementptr inbounds [10 x %struct.contractType], ptr %289, i64 0, i64 %291
  %293 = getelementptr inbounds nuw %struct.contractType, ptr %292, i32 0, i32 1
  %294 = load i32, ptr %293, align 4
  %295 = call i32 (ptr, ptr, ...) @sprintf(ptr noundef %285, ptr noundef @.str.16, i32 noundef %294) #7
  %296 = load ptr, ptr %6, align 8
  %297 = load i32, ptr %10, align 4
  %298 = sext i32 %297 to i64
  %299 = getelementptr inbounds %struct.parResultsDealer, ptr %296, i64 %298
  %300 = getelementptr inbounds nuw %struct.parResultsDealer, ptr %299, i32 0, i32 2
  %301 = load i32, ptr %11, align 4
  %302 = sext i32 %301 to i64
  %303 = getelementptr inbounds [10 x [10 x i8]], ptr %300, i64 0, i64 %302
  %304 = getelementptr inbounds [10 x i8], ptr %303, i64 0, i64 0
  %305 = getelementptr inbounds [4 x i8], ptr %12, i64 0, i64 0
  %306 = call ptr @strcat(ptr noundef %304, ptr noundef %305) #7
  br label %307

307:                                              ; preds = %284, %273
  br label %308

308:                                              ; preds = %307, %250
  br label %309

309:                                              ; preds = %308
  %310 = load i32, ptr %11, align 4
  %311 = add nsw i32 %310, 1
  store i32 %311, ptr %11, align 4
  br label %46, !llvm.loop !33

312:                                              ; preds = %46
  br label %313

313:                                              ; preds = %312
  %314 = load i32, ptr %10, align 4
  %315 = add nsw i32 %314, 1
  store i32 %315, ptr %10, align 4
  br label %22, !llvm.loop !34

316:                                              ; preds = %22
  store i32 1, ptr %4, align 4
  br label %317

317:                                              ; preds = %316, %19
  %318 = load i32, ptr %4, align 4
  ret i32 %318
}