; Function Attrs: mustprogress nofree nounwind uwtable
define range(i32 -1, 2) i32 @SidesPar(ptr noundef readonly captures(none) %0, ptr noundef %1, i32 noundef %2) local_unnamed_addr #3 {
  %4 = alloca [2 x %struct.parResultsMaster], align 16
  %5 = alloca [4 x i8], align 1
  %6 = call i32 @SidesParBin(ptr noundef %0, ptr noundef nonnull %4, i32 noundef %2)
  %.not = icmp eq i32 %6, 1
  %indvars.iv107.sroa.gep = getelementptr inbounds nuw i8, ptr %4, i64 208
  br i1 %.not, label %.preheader, label %.loopexit

.preheader:                                       ; preds = %3, %._crit_edge
  %7 = phi i1 [ false, %._crit_edge ], [ true, %3 ]
  %indvars.iv107.sroa.phi = phi ptr [ %indvars.iv107.sroa.gep, %._crit_edge ], [ %4, %3 ]
  %indvars.iv107 = phi i64 [ 1, %._crit_edge ], [ 0, %3 ]
  %8 = load i32, ptr %indvars.iv107.sroa.phi, align 16
  %9 = getelementptr inbounds nuw %struct.parResultsDealer, ptr %1, i64 %indvars.iv107
  %10 = getelementptr inbounds nuw i8, ptr %9, i64 4
  store i32 %8, ptr %10, align 4
  %11 = getelementptr inbounds nuw i8, ptr %indvars.iv107.sroa.phi, i64 4
  %12 = load i32, ptr %11, align 4
  store i32 %12, ptr %9, align 4
  %13 = icmp sgt i32 %12, 0
  br i1 %13, label %.lr.ph, label %._crit_edge

.lr.ph:                                           ; preds = %.preheader
  %14 = getelementptr inbounds nuw i8, ptr %9, i64 8
  %15 = getelementptr inbounds nuw i8, ptr %indvars.iv107.sroa.phi, i64 8
  br label %16

16:                                               ; preds = %.lr.ph, %49
  %indvars.iv = phi i64 [ 0, %.lr.ph ], [ %indvars.iv.next, %49 ]
  %17 = getelementptr inbounds nuw [10 x [10 x i8]], ptr %14, i64 0, i64 %indvars.iv
  %18 = getelementptr inbounds nuw [10 x %struct.contractType], ptr %15, i64 0, i64 %indvars.iv
  %19 = getelementptr inbounds nuw i8, ptr %18, i64 8
  %20 = load i32, ptr %19, align 4
  %21 = call i32 (ptr, ptr, ...) @sprintf(ptr noundef nonnull dereferenceable(1) %17, ptr noundef nonnull dereferenceable(1) @.str, i32 noundef %20) #13
  %22 = getelementptr inbounds nuw i8, ptr %18, i64 12
  %23 = load i32, ptr %22, align 4
  %24 = icmp ult i32 %23, 5
  br i1 %24, label %switch.lookup, label %26

switch.lookup:                                    ; preds = %16
  %25 = zext nneg i32 %23 to i64
  %switch.gep = getelementptr inbounds nuw [5 x i16], ptr @switch.table.ConvertToDealerTextFormat, i64 0, i64 %25
  %switch.load = load i16, ptr %switch.gep, align 2
  %strlen = call i64 @strlen(ptr noundef nonnull dereferenceable(1) %17)
  %endptr = getelementptr inbounds i8, ptr %17, i64 %strlen
  store i16 %switch.load, ptr %endptr, align 1
  br label %26

26:                                               ; preds = %16, %switch.lookup
  %27 = load i32, ptr %18, align 4
  %28 = icmp sgt i32 %27, 0
  br i1 %28, label %29, label %30

29:                                               ; preds = %26
  %strlen90 = call i64 @strlen(ptr noundef nonnull dereferenceable(1) %17)
  %endptr91 = getelementptr inbounds i8, ptr %17, i64 %strlen90
  store i16 42, ptr %endptr91, align 1
  br label %30

30:                                               ; preds = %29, %26
  %31 = getelementptr inbounds nuw i8, ptr %18, i64 16
  %32 = load i32, ptr %31, align 4
  switch i32 %32, label %39 [
    i32 0, label %33
    i32 1, label %34
    i32 2, label %35
    i32 3, label %36
    i32 4, label %37
    i32 5, label %38
  ]

33:                                               ; preds = %30
  %strlen102 = call i64 @strlen(ptr noundef nonnull dereferenceable(1) %17)
  %endptr103 = getelementptr inbounds i8, ptr %17, i64 %strlen102
  call void @llvm.memcpy.p0.p0.i64(ptr noundef nonnull align 1 dereferenceable(3) %endptr103, ptr noundef nonnull align 1 dereferenceable(3) @.str.3, i64 3, i1 false)
  br label %39

34:                                               ; preds = %30
  %strlen100 = call i64 @strlen(ptr noundef nonnull dereferenceable(1) %17)
  %endptr101 = getelementptr inbounds i8, ptr %17, i64 %strlen100
  call void @llvm.memcpy.p0.p0.i64(ptr noundef nonnull align 1 dereferenceable(3) %endptr101, ptr noundef nonnull align 1 dereferenceable(3) @.str.4, i64 3, i1 false)
  br label %39

35:                                               ; preds = %30
  %strlen98 = call i64 @strlen(ptr noundef nonnull dereferenceable(1) %17)
  %endptr99 = getelementptr inbounds i8, ptr %17, i64 %strlen98
  call void @llvm.memcpy.p0.p0.i64(ptr noundef nonnull align 1 dereferenceable(3) %endptr99, ptr noundef nonnull align 1 dereferenceable(3) @.str.5, i64 3, i1 false)
  br label %39

36:                                               ; preds = %30
  %strlen96 = call i64 @strlen(ptr noundef nonnull dereferenceable(1) %17)
  %endptr97 = getelementptr inbounds i8, ptr %17, i64 %strlen96
  call void @llvm.memcpy.p0.p0.i64(ptr noundef nonnull align 1 dereferenceable(3) %endptr97, ptr noundef nonnull align 1 dereferenceable(3) @.str.6, i64 3, i1 false)
  br label %39

37:                                               ; preds = %30
  %strlen94 = call i64 @strlen(ptr noundef nonnull dereferenceable(1) %17)
  %endptr95 = getelementptr inbounds i8, ptr %17, i64 %strlen94
  store i32 5459501, ptr %endptr95, align 1
  br label %39

38:                                               ; preds = %30
  %strlen92 = call i64 @strlen(ptr noundef nonnull dereferenceable(1) %17)
  %endptr93 = getelementptr inbounds i8, ptr %17, i64 %strlen92
  store i32 5719341, ptr %endptr93, align 1
  br label %39

39:                                               ; preds = %30, %38, %37, %36, %35, %34, %33
  br i1 %28, label %40, label %42

40:                                               ; preds = %39
  %41 = call i32 (ptr, ptr, ...) @sprintf(ptr noundef nonnull dereferenceable(1) %5, ptr noundef nonnull dereferenceable(1) @.str.15, i32 noundef %27) #13
  br label %.sink.split110

42:                                               ; preds = %39
  %43 = getelementptr inbounds nuw i8, ptr %18, i64 4
  %44 = load i32, ptr %43, align 4
  %45 = icmp sgt i32 %44, 0
  br i1 %45, label %46, label %49

46:                                               ; preds = %42
  %47 = call i32 (ptr, ptr, ...) @sprintf(ptr noundef nonnull dereferenceable(1) %5, ptr noundef nonnull dereferenceable(1) @.str.16, i32 noundef %44) #13
  br label %.sink.split110

.sink.split110:                                   ; preds = %46, %40
  %48 = call ptr @strcat(ptr noundef nonnull dereferenceable(1) %17, ptr noundef nonnull dereferenceable(1) %5) #13
  br label %49

49:                                               ; preds = %.sink.split110, %42
  %indvars.iv.next = add nuw nsw i64 %indvars.iv, 1
  %50 = load i32, ptr %9, align 4
  %51 = sext i32 %50 to i64
  %52 = icmp slt i64 %indvars.iv.next, %51
  br i1 %52, label %16, label %._crit_edge, !llvm.loop !31

._crit_edge:                                      ; preds = %49, %.preheader
  br i1 %7, label %.preheader, label %.loopexit, !llvm.loop !32

.loopexit:                                        ; preds = %._crit_edge, %3
  %.078 = phi i32 [ %6, %3 ], [ 1, %._crit_edge ]
  ret i32 %.078
}